ccopy_reg
_reconstructor
p1
(c__main__
NetworkDevice
p2
c__builtin__
object
p3
NtRp4
(dp5
S'uptime'
p6
S'68396667'
p7
sS'run_config_changed'
p8
I01
sS'last_changed'
p9
S'68333299'
p10
sS'device_name'
p11
S'pynet-rtr2.twb-tech.com'
p12
sb.ccopy_reg
_reconstructor
p1
(c__main__
NetworkDevice
p2
c__builtin__
object
p3
NtRp4
(dp5
S'uptime'
p6
S'68386561'
p7
sS'run_config_changed'
p8
I00
sS'last_changed'
p9
S'60779941'
p10
sS'device_name'
p11
S'pynet-rtr1.twb-tech.com'
p12
sb.